target datalayout = "e-m:e-p270:32:32-p271:32:32-p272:64:64-i64:64-i128:128-f80:128-n8:16:32:64-S128"
target triple = "x86_64-pc-linux-gnu"

%struct.tvb_ops = type { i64, ptr, ptr, ptr, ptr, ptr, ptr, ptr }
%struct.tvbuff = type { ptr, ptr, i8, i32, ptr, ptr, i32, i32, i32, i32 }

@.str = private unnamed_addr constant [29 x i8] c"%s:%u: failed assertion \22%s\22\00", align 1
@.str.1 = private unnamed_addr constant [14 x i8] c"epan/tvbuff.c\00", align 1
@.str.9 = private unnamed_addr constant [55 x i8] c"%s:%u: failed assertion \22DISSECTOR_ASSERT_NOT_REACHED\22\00", align 1
@.str.31 = private unnamed_addr constant [11 x i8] c"offset_ptr\00", align 1
@.str.32 = private unnamed_addr constant [11 x i8] c"length_ptr\00", align 1
@.str.33 = private unnamed_addr constant [14 x i8] c"exception > 0\00", align 1

; Function Attrs: inlinehint nounwind null_pointer_is_valid sspstrong uwtable
define internal i32 @validate_offset(ptr noundef %0, i32 noundef %1) #7 {
  %3 = alloca i32, align 4
  %4 = alloca ptr, align 8
  %5 = alloca i32, align 4
  %6 = alloca i32, align 4
  %7 = alloca i32, align 4
  store ptr %0, ptr %4, align 8
  store i32 %1, ptr %5, align 4
  call void @llvm.lifetime.start.p0(i64 4, ptr %6) #16
  %8 = load i32, ptr %5, align 4
  %9 = load ptr, ptr %4, align 8
  %10 = getelementptr inbounds nuw %struct.tvbuff, ptr %9, i32 0, i32 6
  %11 = load i32, ptr %10, align 8
  %12 = icmp ule i32 %8, %11
  br i1 %12, label %13, label %14

13:                                               ; preds = %2
  store i32 1, ptr %6, align 4
  br label %15

14:                                               ; preds = %2
  store i32 0, ptr %6, align 4
  br label %15

15:                                               ; preds = %14, %13
  %16 = load i32, ptr %6, align 4
  store i32 %16, ptr %7, align 4
  call void @llvm.lifetime.end.p0(i64 4, ptr %6) #16
  %17 = load i32, ptr %7, align 4
  %18 = sext i32 %17 to i64
  %19 = call i64 @llvm.expect.i64(i64 %18, i64 1)
  %20 = icmp ne i64 %19, 0
  br i1 %20, label %21, label %22

21:                                               ; preds = %15
  store i32 0, ptr %3, align 4
  br label %44

22:                                               ; preds = %15
  %23 = load i32, ptr %5, align 4
  %24 = load ptr, ptr %4, align 8
  %25 = getelementptr inbounds nuw %struct.tvbuff, ptr %24, i32 0, i32 8
  %26 = load i32, ptr %25, align 8
  %27 = icmp ule i32 %23, %26
  br i1 %27, label %28, label %29

28:                                               ; preds = %22
  store i32 1, ptr %3, align 4
  br label %44

29:                                               ; preds = %22
  %30 = load ptr, ptr %4, align 8
  %31 = getelementptr inbounds nuw %struct.tvbuff, ptr %30, i32 0, i32 3
  %32 = load i32, ptr %31, align 4
  %33 = and i32 %32, 1
  %34 = icmp ne i32 %33, 0
  br i1 %34, label %35, label %36

35:                                               ; preds = %29
  store i32 4, ptr %3, align 4
  br label %44

36:                                               ; preds = %29
  %37 = load i32, ptr %5, align 4
  %38 = load ptr, ptr %4, align 8
  %39 = getelementptr inbounds nuw %struct.tvbuff, ptr %38, i32 0, i32 7
  %40 = load i32, ptr %39, align 4
  %41 = icmp ule i32 %37, %40
  br i1 %41, label %42, label %43

42:                                               ; preds = %36
  store i32 2, ptr %3, align 4
  br label %44

43:                                               ; preds = %36
  store i32 3, ptr %3, align 4
  br label %44

44:                                               ; preds = %43, %42, %35, %28, %21
  %45 = load i32, ptr %3, align 4
  ret i32 %45
}

; Function Attrs: inlinehint nounwind null_pointer_is_valid sspstrong uwtable
define internal i32 @compute_offset(ptr noundef %0, i32 noundef %1, ptr noundef %2) #7 {
  %4 = alloca i32, align 4
  %5 = alloca ptr, align 8
  %6 = alloca i32, align 4
  %7 = alloca ptr, align 8
  %8 = alloca i32, align 4
  %9 = alloca i32, align 4
  %10 = alloca i32, align 4
  %11 = alloca i32, align 4
  store ptr %0, ptr %5, align 8
  store i32 %1, ptr %6, align 4
  store ptr %2, ptr %7, align 8
  %12 = load i32, ptr %6, align 4
  %13 = icmp sge i32 %12, 0
  br i1 %13, label %14, label %54

14:                                               ; preds = %3
  call void @llvm.lifetime.start.p0(i64 4, ptr %8) #16
  %15 = load i32, ptr %6, align 4
  %16 = load ptr, ptr %5, align 8
  %17 = getelementptr inbounds nuw %struct.tvbuff, ptr %16, i32 0, i32 6
  %18 = load i32, ptr %17, align 8
  %19 = icmp ule i32 %15, %18
  br i1 %19, label %20, label %21

20:                                               ; preds = %14
  store i32 1, ptr %8, align 4
  br label %22

21:                                               ; preds = %14
  store i32 0, ptr %8, align 4
  br label %22

22:                                               ; preds = %21, %20
  %23 = load i32, ptr %8, align 4
  store i32 %23, ptr %9, align 4
  call void @llvm.lifetime.end.p0(i64 4, ptr %8) #16
  %24 = load i32, ptr %9, align 4
  %25 = sext i32 %24 to i64
  %26 = call i64 @llvm.expect.i64(i64 %25, i64 1)
  %27 = icmp ne i64 %26, 0
  br i1 %27, label %28, label %31

28:                                               ; preds = %22
  %29 = load i32, ptr %6, align 4
  %30 = load ptr, ptr %7, align 8
  store i32 %29, ptr %30, align 4
  br label %53

31:                                               ; preds = %22
  %32 = load i32, ptr %6, align 4
  %33 = load ptr, ptr %5, align 8
  %34 = getelementptr inbounds nuw %struct.tvbuff, ptr %33, i32 0, i32 8
  %35 = load i32, ptr %34, align 8
  %36 = icmp ule i32 %32, %35
  br i1 %36, label %37, label %38

37:                                               ; preds = %31
  store i32 1, ptr %4, align 4
  br label %102

38:                                               ; preds = %31
  %39 = load ptr, ptr %5, align 8
  %40 = getelementptr inbounds nuw %struct.tvbuff, ptr %39, i32 0, i32 3
  %41 = load i32, ptr %40, align 4
  %42 = and i32 %41, 1
  %43 = icmp ne i32 %42, 0
  br i1 %43, label %44, label %45

44:                                               ; preds = %38
  store i32 4, ptr %4, align 4
  br label %102

45:                                               ; preds = %38
  %46 = load i32, ptr %6, align 4
  %47 = load ptr, ptr %5, align 8
  %48 = getelementptr inbounds nuw %struct.tvbuff, ptr %47, i32 0, i32 7
  %49 = load i32, ptr %48, align 4
  %50 = icmp ule i32 %46, %49
  br i1 %50, label %51, label %52

51:                                               ; preds = %45
  store i32 2, ptr %4, align 4
  br label %102

52:                                               ; preds = %45
  store i32 3, ptr %4, align 4
  br label %102

53:                                               ; preds = %28
  br label %101

54:                                               ; preds = %3
  call void @llvm.lifetime.start.p0(i64 4, ptr %10) #16
  %55 = load i32, ptr %6, align 4
  %56 = sub i32 0, %55
  %57 = load ptr, ptr %5, align 8
  %58 = getelementptr inbounds nuw %struct.tvbuff, ptr %57, i32 0, i32 6
  %59 = load i32, ptr %58, align 8
  %60 = icmp ule i32 %56, %59
  br i1 %60, label %61, label %62

61:                                               ; preds = %54
  store i32 1, ptr %10, align 4
  br label %63

62:                                               ; preds = %54
  store i32 0, ptr %10, align 4
  br label %63

63:                                               ; preds = %62, %61
  %64 = load i32, ptr %10, align 4
  store i32 %64, ptr %11, align 4
  call void @llvm.lifetime.end.p0(i64 4, ptr %10) #16
  %65 = load i32, ptr %11, align 4
  %66 = sext i32 %65 to i64
  %67 = call i64 @llvm.expect.i64(i64 %66, i64 1)
  %68 = icmp ne i64 %67, 0
  br i1 %68, label %69, label %76

69:                                               ; preds = %63
  %70 = load ptr, ptr %5, align 8
  %71 = getelementptr inbounds nuw %struct.tvbuff, ptr %70, i32 0, i32 6
  %72 = load i32, ptr %71, align 8
  %73 = load i32, ptr %6, align 4
  %74 = add i32 %72, %73
  %75 = load ptr, ptr %7, align 8
  store i32 %74, ptr %75, align 4
  br label %100

76:                                               ; preds = %63
  %77 = load i32, ptr %6, align 4
  %78 = sub i32 0, %77
  %79 = load ptr, ptr %5, align 8
  %80 = getelementptr inbounds nuw %struct.tvbuff, ptr %79, i32 0, i32 8
  %81 = load i32, ptr %80, align 8
  %82 = icmp ule i32 %78, %81
  br i1 %82, label %83, label %84

83:                                               ; preds = %76
  store i32 1, ptr %4, align 4
  br label %102

84:                                               ; preds = %76
  %85 = load ptr, ptr %5, align 8
  %86 = getelementptr inbounds nuw %struct.tvbuff, ptr %85, i32 0, i32 3
  %87 = load i32, ptr %86, align 4
  %88 = and i32 %87, 1
  %89 = icmp ne i32 %88, 0
  br i1 %89, label %90, label %91

90:                                               ; preds = %84
  store i32 4, ptr %4, align 4
  br label %102

91:                                               ; preds = %84
  %92 = load i32, ptr %6, align 4
  %93 = sub i32 0, %92
  %94 = load ptr, ptr %5, align 8
  %95 = getelementptr inbounds nuw %struct.tvbuff, ptr %94, i32 0, i32 7
  %96 = load i32, ptr %95, align 4
  %97 = icmp ule i32 %93, %96
  br i1 %97, label %98, label %99

98:                                               ; preds = %91
  store i32 2, ptr %4, align 4
  br label %102

99:                                               ; preds = %91
  store i32 3, ptr %4, align 4
  br label %102

100:                                              ; preds = %69
  br label %101

101:                                              ; preds = %100, %53
  store i32 0, ptr %4, align 4
  br label %102

102:                                              ; preds = %101, %99, %98, %90, %83, %52, %51, %44, %37
  %103 = load i32, ptr %4, align 4
  ret i32 %103
}

; Function Attrs: inlinehint null_pointer_is_valid sspstrong uwtable
define internal i32 @check_offset_length_no_exception(ptr noundef %0, i32 noundef %1, i32 noundef %2, ptr noundef %3, ptr noundef %4) #5 {
  %6 = alloca i32, align 4
  %7 = alloca ptr, align 8
  %8 = alloca i32, align 4
  %9 = alloca i32, align 4
  %10 = alloca ptr, align 8
  %11 = alloca ptr, align 8
  %12 = alloca i32, align 4
  %13 = alloca i32, align 4
  %14 = alloca i32, align 4
  store ptr %0, ptr %7, align 8
  store i32 %1, ptr %8, align 4
  store i32 %2, ptr %9, align 4
  store ptr %3, ptr %10, align 8
  store ptr %4, ptr %11, align 8
  call void @llvm.lifetime.start.p0(i64 4, ptr %12) #16
  call void @llvm.lifetime.start.p0(i64 4, ptr %13) #16
  %15 = load ptr, ptr %10, align 8
  %16 = icmp ne ptr %15, null
  br i1 %16, label %17, label %18

17:                                               ; preds = %5
  br label %20

18:                                               ; preds = %5
  call void (ptr, ...) @proto_report_dissector_bug(ptr noundef @.str, ptr noundef @.str.1, i32 noundef 298, ptr noundef @.str.31) #18
  unreachable

19:                                               ; No predecessors!
  br label %20

20:                                               ; preds = %19, %17
  %21 = load ptr, ptr %11, align 8
  %22 = icmp ne ptr %21, null
  br i1 %22, label %23, label %24

23:                                               ; preds = %20
  br label %26

24:                                               ; preds = %20
  call void (ptr, ...) @proto_report_dissector_bug(ptr noundef @.str, ptr noundef @.str.1, i32 noundef 299, ptr noundef @.str.32) #18
  unreachable

25:                                               ; No predecessors!
  br label %26

26:                                               ; preds = %25, %23
  %27 = load ptr, ptr %7, align 8
  %28 = load i32, ptr %8, align 4
  %29 = load ptr, ptr %10, align 8
  %30 = call i32 @compute_offset(ptr noundef %27, i32 noundef %28, ptr noundef %29)
  store i32 %30, ptr %13, align 4
  %31 = load i32, ptr %13, align 4
  %32 = icmp ne i32 %31, 0
  br i1 %32, label %33, label %35

33:                                               ; preds = %26
  %34 = load i32, ptr %13, align 4
  store i32 %34, ptr %6, align 4
  store i32 1, ptr %14, align 4
  br label %68

35:                                               ; preds = %26
  %36 = load i32, ptr %9, align 4
  %37 = icmp slt i32 %36, -1
  br i1 %37, label %38, label %39

38:                                               ; preds = %35
  store i32 1, ptr %6, align 4
  store i32 1, ptr %14, align 4
  br label %68

39:                                               ; preds = %35
  %40 = load i32, ptr %9, align 4
  %41 = icmp eq i32 %40, -1
  br i1 %41, label %42, label %50

42:                                               ; preds = %39
  %43 = load ptr, ptr %7, align 8
  %44 = getelementptr inbounds nuw %struct.tvbuff, ptr %43, i32 0, i32 6
  %45 = load i32, ptr %44, align 8
  %46 = load ptr, ptr %10, align 8
  %47 = load i32, ptr %46, align 4
  %48 = sub i32 %45, %47
  %49 = load ptr, ptr %11, align 8
  store i32 %48, ptr %49, align 4
  br label %53

50:                                               ; preds = %39
  %51 = load i32, ptr %9, align 4
  %52 = load ptr, ptr %11, align 8
  store i32 %51, ptr %52, align 4
  br label %53

53:                                               ; preds = %50, %42
  %54 = load ptr, ptr %10, align 8
  %55 = load i32, ptr %54, align 4
  %56 = load ptr, ptr %11, align 8
  %57 = load i32, ptr %56, align 4
  %58 = add i32 %55, %57
  store i32 %58, ptr %12, align 4
  %59 = load i32, ptr %12, align 4
  %60 = load ptr, ptr %10, align 8
  %61 = load i32, ptr %60, align 4
  %62 = icmp ult i32 %59, %61
  br i1 %62, label %63, label %64

63:                                               ; preds = %53
  store i32 1, ptr %6, align 4
  store i32 1, ptr %14, align 4
  br label %68

64:                                               ; preds = %53
  %65 = load ptr, ptr %7, align 8
  %66 = load i32, ptr %12, align 4
  %67 = call i32 @validate_offset(ptr noundef %65, i32 noundef %66)
  store i32 %67, ptr %6, align 4
  store i32 1, ptr %14, align 4
  br label %68

68:                                               ; preds = %64, %63, %38, %33
  call void @llvm.lifetime.end.p0(i64 4, ptr %13) #16
  call void @llvm.lifetime.end.p0(i64 4, ptr %12) #16
  %69 = load i32, ptr %6, align 4
  ret i32 %69
}

; Function Attrs: inlinehint null_pointer_is_valid sspstrong uwtable
define internal ptr @ensure_contiguous_no_exception(ptr noundef %0, i32 noundef %1, i32 noundef %2, ptr noundef %3) #5 {
  %5 = alloca ptr, align 8
  %6 = alloca ptr, align 8
  %7 = alloca i32, align 4
  %8 = alloca i32, align 4
  %9 = alloca ptr, align 8
  %10 = alloca i32, align 4
  %11 = alloca i32, align 4
  %12 = alloca i32, align 4
  %13 = alloca i32, align 4
  store ptr %0, ptr %6, align 8
  store i32 %1, ptr %7, align 4
  store i32 %2, ptr %8, align 4
  store ptr %3, ptr %9, align 8
  call void @llvm.lifetime.start.p0(i64 4, ptr %10) #16
  store i32 0, ptr %10, align 4
  call void @llvm.lifetime.start.p0(i64 4, ptr %11) #16
  store i32 0, ptr %11, align 4
  call void @llvm.lifetime.start.p0(i64 4, ptr %12) #16
  %14 = load ptr, ptr %6, align 8
  %15 = load i32, ptr %7, align 4
  %16 = load i32, ptr %8, align 4
  %17 = call i32 @check_offset_length_no_exception(ptr noundef %14, i32 noundef %15, i32 noundef %16, ptr noundef %10, ptr noundef %11)
  store i32 %17, ptr %12, align 4
  %18 = load i32, ptr %12, align 4
  %19 = icmp ne i32 %18, 0
  br i1 %19, label %20, label %27

20:                                               ; preds = %4
  %21 = load ptr, ptr %9, align 8
  %22 = icmp ne ptr %21, null
  br i1 %22, label %23, label %26

23:                                               ; preds = %20
  %24 = load i32, ptr %12, align 4
  %25 = load ptr, ptr %9, align 8
  store i32 %24, ptr %25, align 4
  br label %26

26:                                               ; preds = %23, %20
  store ptr null, ptr %5, align 8
  store i32 1, ptr %13, align 4
  br label %61

27:                                               ; preds = %4
  %28 = load i32, ptr %8, align 4
  %29 = icmp eq i32 %28, 0
  br i1 %29, label %30, label %31

30:                                               ; preds = %27
  store ptr null, ptr %5, align 8
  store i32 1, ptr %13, align 4
  br label %61

31:                                               ; preds = %27
  %32 = load ptr, ptr %6, align 8
  %33 = getelementptr inbounds nuw %struct.tvbuff, ptr %32, i32 0, i32 5
  %34 = load ptr, ptr %33, align 8
  %35 = icmp ne ptr %34, null
  br i1 %35, label %36, label %43

36:                                               ; preds = %31
  %37 = load ptr, ptr %6, align 8
  %38 = getelementptr inbounds nuw %struct.tvbuff, ptr %37, i32 0, i32 5
  %39 = load ptr, ptr %38, align 8
  %40 = load i32, ptr %10, align 4
  %41 = zext i32 %40 to i64
  %42 = getelementptr i8, ptr %39, i64 %41
  store ptr %42, ptr %5, align 8
  store i32 1, ptr %13, align 4
  br label %61

43:                                               ; preds = %31
  %44 = load ptr, ptr %6, align 8
  %45 = getelementptr inbounds nuw %struct.tvbuff, ptr %44, i32 0, i32 1
  %46 = load ptr, ptr %45, align 8
  %47 = getelementptr inbounds nuw %struct.tvb_ops, ptr %46, i32 0, i32 3
  %48 = load ptr, ptr %47, align 8
  %49 = icmp ne ptr %48, null
  br i1 %49, label %50, label %60

50:                                               ; preds = %43
  %51 = load ptr, ptr %6, align 8
  %52 = getelementptr inbounds nuw %struct.tvbuff, ptr %51, i32 0, i32 1
  %53 = load ptr, ptr %52, align 8
  %54 = getelementptr inbounds nuw %struct.tvb_ops, ptr %53, i32 0, i32 3
  %55 = load ptr, ptr %54, align 8
  %56 = load ptr, ptr %6, align 8
  %57 = load i32, ptr %10, align 4
  %58 = load i32, ptr %11, align 4
  %59 = call ptr %55(ptr noundef %56, i32 noundef %57, i32 noundef %58)
  store ptr %59, ptr %5, align 8
  store i32 1, ptr %13, align 4
  br label %61

60:                                               ; preds = %43
  call void (ptr, ...) @proto_report_dissector_bug(ptr noundef @.str.9, ptr noundef @.str.1, i32 noundef 869) #18
  unreachable

61:                                               ; preds = %50, %36, %30, %26
  call void @llvm.lifetime.end.p0(i64 4, ptr %12) #16
  call void @llvm.lifetime.end.p0(i64 4, ptr %11) #16
  call void @llvm.lifetime.end.p0(i64 4, ptr %10) #16
  %62 = load ptr, ptr %5, align 8
  ret ptr %62
}

; Function Attrs: inlinehint null_pointer_is_valid sspstrong uwtable
define internal ptr @ensure_contiguous(ptr noundef %0, i32 noundef %1, i32 noundef %2) #5 {
  %4 = alloca ptr, align 8
  %5 = alloca i32, align 4
  %6 = alloca i32, align 4
  %7 = alloca i32, align 4
  %8 = alloca ptr, align 8
  store ptr %0, ptr %4, align 8
  store i32 %1, ptr %5, align 4
  store i32 %2, ptr %6, align 4
  call void @llvm.lifetime.start.p0(i64 4, ptr %7) #16
  store i32 0, ptr %7, align 4
  call void @llvm.lifetime.start.p0(i64 8, ptr %8) #16
  %9 = load ptr, ptr %4, align 8
  %10 = load i32, ptr %5, align 4
  %11 = load i32, ptr %6, align 4
  %12 = call ptr @ensure_contiguous_no_exception(ptr noundef %9, i32 noundef %10, i32 noundef %11, ptr noundef %7)
  store ptr %12, ptr %8, align 8
  %13 = load ptr, ptr %8, align 8
  %14 = icmp eq ptr %13, null
  br i1 %14, label %15, label %27

15:                                               ; preds = %3
  %16 = load i32, ptr %6, align 4
  %17 = icmp ne i32 %16, 0
  br i1 %17, label %18, label %27

18:                                               ; preds = %15
  %19 = load i32, ptr %7, align 4
  %20 = icmp sgt i32 %19, 0
  br i1 %20, label %21, label %22

21:                                               ; preds = %18
  br label %24

22:                                               ; preds = %18
  call void (ptr, ...) @proto_report_dissector_bug(ptr noundef @.str, ptr noundef @.str.1, i32 noundef 881, ptr noundef @.str.33) #18
  unreachable

23:                                               ; No predecessors!
  br label %24

24:                                               ; preds = %23, %21
  %25 = load i32, ptr %7, align 4
  %26 = sext i32 %25 to i64
  call void @except_throw(i64 noundef 1, i64 noundef %26, ptr noundef null) #18
  unreachable

27:                                               ; preds = %15, %3
  %28 = load ptr, ptr %8, align 8
  call void @llvm.lifetime.end.p0(i64 8, ptr %8) #16
  call void @llvm.lifetime.end.p0(i64 4, ptr %7) #16
  ret ptr %28
}