; Function Attrs: inlinehint null_pointer_is_valid sspstrong uwtable
define internal fastcc ptr @ensure_contiguous(ptr noundef %0, i32 noundef %1, i32 noundef %2) unnamed_addr #5 {
  %4 = icmp sgt i32 %1, -1
  br i1 %4, label %5, label %18

5:                                                ; preds = %3
  %6 = getelementptr inbounds nuw i8, ptr %0, i64 40
  %7 = load i32, ptr %6, align 8
  %.not32.i.i.i = icmp ugt i32 %1, %7
  br i1 %.not32.i.i.i, label %8, label %34, !prof !11

8:                                                ; preds = %5
  %9 = getelementptr inbounds nuw i8, ptr %0, i64 48
  %10 = load i32, ptr %9, align 8
  %.not34.i.i.i = icmp ugt i32 %1, %10
  br i1 %.not34.i.i.i, label %11, label %ensure_contiguous_no_exception.exit

11:                                               ; preds = %8
  %12 = getelementptr inbounds nuw i8, ptr %0, i64 20
  %13 = load i32, ptr %12, align 4
  %14 = and i32 %13, 1
  %.not35.i.i.i = icmp eq i32 %14, 0
  br i1 %.not35.i.i.i, label %15, label %ensure_contiguous_no_exception.exit

15:                                               ; preds = %11
  %16 = getelementptr inbounds nuw i8, ptr %0, i64 44
  %17 = load i32, ptr %16, align 4
  %.not36.i.i.i = icmp ugt i32 %1, %17
  %..i.i.i = select i1 %.not36.i.i.i, i32 3, i32 2
  br label %ensure_contiguous_no_exception.exit

18:                                               ; preds = %3
  %19 = sub i32 0, %1
  %20 = getelementptr inbounds nuw i8, ptr %0, i64 40
  %21 = load i32, ptr %20, align 8
  %.not.i.i.i = icmp ult i32 %21, %19
  br i1 %.not.i.i.i, label %24, label %22, !prof !11

22:                                               ; preds = %18
  %23 = add i32 %21, %1
  br label %34

24:                                               ; preds = %18
  %25 = getelementptr inbounds nuw i8, ptr %0, i64 48
  %26 = load i32, ptr %25, align 8
  %.not29.i.i.i = icmp ult i32 %26, %19
  br i1 %.not29.i.i.i, label %27, label %ensure_contiguous_no_exception.exit

27:                                               ; preds = %24
  %28 = getelementptr inbounds nuw i8, ptr %0, i64 20
  %29 = load i32, ptr %28, align 4
  %30 = and i32 %29, 1
  %.not30.i.i.i = icmp eq i32 %30, 0
  br i1 %.not30.i.i.i, label %31, label %ensure_contiguous_no_exception.exit

31:                                               ; preds = %27
  %32 = getelementptr inbounds nuw i8, ptr %0, i64 44
  %33 = load i32, ptr %32, align 4
  %.not31.i.i.i = icmp ult i32 %33, %19
  %.37.i.i.i = select i1 %.not31.i.i.i, i32 3, i32 2
  br label %ensure_contiguous_no_exception.exit

34:                                               ; preds = %22, %5
  %35 = phi i32 [ %21, %22 ], [ %7, %5 ]
  %36 = phi i32 [ %23, %22 ], [ %1, %5 ]
  %37 = icmp slt i32 %2, -1
  br i1 %37, label %ensure_contiguous_no_exception.exit, label %38

38:                                               ; preds = %34
  %39 = icmp eq i32 %2, -1
  %40 = sub i32 %35, %36
  %spec.select.i = select i1 %39, i32 %40, i32 %2
  %41 = add i32 %spec.select.i, %36
  %42 = icmp ult i32 %41, %36
  br i1 %42, label %ensure_contiguous_no_exception.exit, label %43

43:                                               ; preds = %38
  %.not.i27.i.i = icmp ugt i32 %41, %35
  br i1 %.not.i27.i.i, label %44, label %check_offset_length_no_exception.exit.i, !prof !11

44:                                               ; preds = %43
  %45 = getelementptr inbounds nuw i8, ptr %0, i64 48
  %46 = load i32, ptr %45, align 8
  %.not12.i.i.i = icmp ugt i32 %41, %46
  br i1 %.not12.i.i.i, label %47, label %ensure_contiguous_no_exception.exit

47:                                               ; preds = %44
  %48 = getelementptr inbounds nuw i8, ptr %0, i64 20
  %49 = load i32, ptr %48, align 4
  %50 = and i32 %49, 1
  %.not13.i.i.i = icmp eq i32 %50, 0
  br i1 %.not13.i.i.i, label %51, label %ensure_contiguous_no_exception.exit

51:                                               ; preds = %47
  %52 = getelementptr inbounds nuw i8, ptr %0, i64 44
  %53 = load i32, ptr %52, align 4
  %.not14.i.i.i = icmp ugt i32 %41, %53
  %..i29.i.i = select i1 %.not14.i.i.i, i32 3, i32 2
  br label %ensure_contiguous_no_exception.exit

check_offset_length_no_exception.exit.i:          ; preds = %43
  %54 = icmp eq i32 %2, 0
  br i1 %54, label %ensure_contiguous_no_exception.exit.thread, label %55

55:                                               ; preds = %check_offset_length_no_exception.exit.i
  %56 = getelementptr inbounds nuw i8, ptr %0, i64 32
  %57 = load ptr, ptr %56, align 8
  %.not17.i = icmp eq ptr %57, null
  br i1 %.not17.i, label %61, label %58

58:                                               ; preds = %55
  %59 = zext i32 %36 to i64
  %60 = getelementptr i8, ptr %57, i64 %59
  br label %ensure_contiguous_no_exception.exit

61:                                               ; preds = %55
  %62 = getelementptr inbounds nuw i8, ptr %0, i64 8
  %63 = load ptr, ptr %62, align 8
  %64 = getelementptr inbounds nuw i8, ptr %63, i64 24
  %65 = load ptr, ptr %64, align 8
  %.not18.i = icmp eq ptr %65, null
  br i1 %.not18.i, label %68, label %66

66:                                               ; preds = %61
  %67 = tail call ptr %65(ptr noundef %0, i32 noundef %36, i32 noundef %spec.select.i)
  br label %ensure_contiguous_no_exception.exit

68:                                               ; preds = %61
  tail call void (ptr, ...) @proto_report_dissector_bug(ptr noundef nonnull @.str.9, ptr noundef nonnull @.str.1, i32 noundef 869) #18
  unreachable

ensure_contiguous_no_exception.exit:              ; preds = %8, %11, %15, %24, %27, %31, %34, %38, %44, %47, %51, %58, %66
  %.0 = phi i32 [ 0, %66 ], [ 0, %58 ], [ 1, %8 ], [ 4, %11 ], [ %..i.i.i, %15 ], [ 1, %24 ], [ 4, %27 ], [ %.37.i.i.i, %31 ], [ %..i29.i.i, %51 ], [ 4, %47 ], [ 1, %44 ], [ 1, %38 ], [ 1, %34 ]
  %.0.i = phi ptr [ %67, %66 ], [ %60, %58 ], [ null, %8 ], [ null, %11 ], [ null, %15 ], [ null, %24 ], [ null, %27 ], [ null, %31 ], [ null, %51 ], [ null, %47 ], [ null, %44 ], [ null, %38 ], [ null, %34 ]
  %69 = icmp eq ptr %.0.i, null
  %70 = icmp ne i32 %2, 0
  %or.cond = and i1 %70, %69
  br i1 %or.cond, label %71, label %ensure_contiguous_no_exception.exit.thread

71:                                               ; preds = %ensure_contiguous_no_exception.exit
  %.not = icmp eq i32 %.0, 0
  br i1 %.not, label %72, label %73

72:                                               ; preds = %71
  tail call void (ptr, ...) @proto_report_dissector_bug(ptr noundef nonnull @.str, ptr noundef nonnull @.str.1, i32 noundef 881, ptr noundef nonnull @.str.33) #18
  unreachable

73:                                               ; preds = %71
  %74 = zext nneg i32 %.0 to i64
  tail call void @except_throw(i64 noundef 1, i64 noundef %74, ptr noundef null) #18
  unreachable

ensure_contiguous_no_exception.exit.thread:       ; preds = %check_offset_length_no_exception.exit.i, %ensure_contiguous_no_exception.exit
  %.0.i9 = phi ptr [ %.0.i, %ensure_contiguous_no_exception.exit ], [ null, %check_offset_length_no_exception.exit.i ]
  ret ptr %.0.i9
}